; Function Attrs: nounwind uwtable
define i32 @av_image_get_buffer_size(i32 noundef %0, i32 noundef %1, i32 noundef %2, i32 noundef %3) local_unnamed_addr #3 {
  %5 = alloca [4 x i32], align 16
  %6 = alloca [4 x i32], align 16
  %7 = alloca [4 x i64], align 16
  %8 = alloca [4 x i64], align 16
  call void @llvm.lifetime.start.p0(i64 16, ptr nonnull %6) #11
  call void @llvm.lifetime.start.p0(i64 32, ptr nonnull %7) #11
  call void @llvm.lifetime.start.p0(i64 32, ptr nonnull %8) #11
  %9 = tail call ptr @av_pix_fmt_desc_get(i32 noundef %0) #11
  %.not = icmp eq ptr %9, null
  br i1 %.not, label %.loopexit, label %10

10:                                               ; preds = %4
  %11 = tail call range(i32 -22, 1) i32 @av_image_check_size2(i32 noundef %1, i32 noundef %2, i64 noundef 9223372036854775807, i32 noundef -1, i32 noundef 0, ptr noundef null)
  %12 = icmp slt i32 %11, 0
  br i1 %12, label %.loopexit, label %13

13:                                               ; preds = %10
  %14 = call i32 @av_image_fill_linesizes(ptr noundef nonnull %6, i32 noundef %0, i32 noundef %1)
  %15 = icmp slt i32 %14, 0
  br i1 %15, label %.loopexit, label %.preheader

.preheader:                                       ; preds = %13
  %16 = add i32 %3, -1
  %17 = sub i32 0, %3
  br label %18

18:                                               ; preds = %.preheader, %18
  %indvars.iv = phi i64 [ 0, %.preheader ], [ %indvars.iv.next, %18 ]
  %19 = getelementptr inbounds nuw [4 x i32], ptr %6, i64 0, i64 %indvars.iv
  %20 = load i32, ptr %19, align 4, !tbaa !10
  %21 = add i32 %16, %20
  %22 = and i32 %21, %17
  %23 = sext i32 %22 to i64
  %24 = getelementptr inbounds nuw [4 x i64], ptr %7, i64 0, i64 %indvars.iv
  store i64 %23, ptr %24, align 8, !tbaa !20
  %indvars.iv.next = add nuw nsw i64 %indvars.iv, 1
  %exitcond.not = icmp eq i64 %indvars.iv.next, 4
  br i1 %exitcond.not, label %25, label %18, !llvm.loop !43

25:                                               ; preds = %18
  call void @llvm.lifetime.start.p0(i64 16, ptr nonnull %5) #11
  call void @llvm.memset.p0.i64(ptr noundef nonnull align 16 dereferenceable(16) %5, i8 0, i64 16, i1 false)
  %26 = tail call ptr @av_pix_fmt_desc_get(i32 noundef %0) #11
  call void @llvm.memset.p0.i64(ptr noundef nonnull align 16 dereferenceable(32) %8, i8 0, i64 32, i1 false)
  %.not.i = icmp eq ptr %26, null
  br i1 %.not.i, label %av_image_fill_plane_sizes.exit.thread, label %27

27:                                               ; preds = %25
  %28 = getelementptr inbounds nuw i8, ptr %26, i64 16
  %29 = load i64, ptr %28, align 8, !tbaa !13
  %30 = and i64 %29, 8
  %.not40.i = icmp eq i64 %30, 0
  br i1 %.not40.i, label %31, label %av_image_fill_plane_sizes.exit.thread

31:                                               ; preds = %27
  %32 = load i64, ptr %7, align 16, !tbaa !20
  %33 = sext i32 %2 to i64
  %mul.i = tail call { i64, i1 } @llvm.umul.with.overflow.i64(i64 %33, i64 %32)
  %mul.ov.i = extractvalue { i64, i1 } %mul.i, 1
  br i1 %mul.ov.i, label %av_image_fill_plane_sizes.exit.thread, label %34

34:                                               ; preds = %31
  %35 = mul i64 %32, %33
  store i64 %35, ptr %8, align 16, !tbaa !20
  %36 = and i64 %29, 2
  %.not41.i = icmp eq i64 %36, 0
  br i1 %.not41.i, label %.preheader47.i, label %38

.preheader47.i:                                   ; preds = %34
  %37 = getelementptr inbounds nuw i8, ptr %26, i64 24
  br label %42

38:                                               ; preds = %34
  %39 = getelementptr inbounds nuw i8, ptr %8, i64 8
  store i64 1024, ptr %39, align 8, !tbaa !20
  br label %av_image_fill_plane_sizes.exit

.preheader.i:                                     ; preds = %42
  %40 = getelementptr inbounds nuw i8, ptr %26, i64 10
  %41 = add i32 %2, -1
  br label %47

42:                                               ; preds = %42, %.preheader47.i
  %indvars.iv.i = phi i64 [ 0, %.preheader47.i ], [ %indvars.iv.next.i, %42 ]
  %43 = getelementptr inbounds nuw [4 x %struct.AVComponentDescriptor], ptr %37, i64 0, i64 %indvars.iv.i
  %44 = load i32, ptr %43, align 4, !tbaa !9
  %45 = sext i32 %44 to i64
  %46 = getelementptr inbounds [4 x i32], ptr %5, i64 0, i64 %45
  store i32 1, ptr %46, align 4, !tbaa !10
  %indvars.iv.next.i = add nuw nsw i64 %indvars.iv.i, 1
  %exitcond.not.i = icmp eq i64 %indvars.iv.next.i, 4
  br i1 %exitcond.not.i, label %.preheader.i, label %42, !llvm.loop !21

47:                                               ; preds = %62, %.preheader.i
  %indvars.iv51.i = phi i64 [ 1, %.preheader.i ], [ %indvars.iv.next52.i, %62 ]
  %48 = getelementptr inbounds nuw [4 x i32], ptr %5, i64 0, i64 %indvars.iv51.i
  %49 = load i32, ptr %48, align 4, !tbaa !10
  %.not42.i = icmp eq i32 %49, 0
  br i1 %.not42.i, label %av_image_fill_plane_sizes.exit, label %50

50:                                               ; preds = %47
  %or.cond.not.i = icmp eq i64 %indvars.iv51.i, 3
  br i1 %or.cond.not.i, label %54, label %51

51:                                               ; preds = %50
  %52 = load i8, ptr %40, align 2, !tbaa !22
  %53 = zext i8 %52 to i32
  br label %54

54:                                               ; preds = %51, %50
  %55 = phi i32 [ %53, %51 ], [ 0, %50 ]
  %56 = shl nuw i32 1, %55
  %57 = add i32 %41, %56
  %58 = ashr i32 %57, %55
  %59 = getelementptr inbounds nuw i64, ptr %7, i64 %indvars.iv51.i
  %60 = load i64, ptr %59, align 8, !tbaa !20
  %61 = sext i32 %58 to i64
  %mul43.i = tail call { i64, i1 } @llvm.umul.with.overflow.i64(i64 %61, i64 %60)
  %mul.ov44.i = extractvalue { i64, i1 } %mul43.i, 1
  br i1 %mul.ov44.i, label %av_image_fill_plane_sizes.exit.thread, label %62

62:                                               ; preds = %54
  %63 = mul i64 %60, %61
  %64 = getelementptr inbounds nuw i64, ptr %8, i64 %indvars.iv51.i
  store i64 %63, ptr %64, align 8, !tbaa !20
  %indvars.iv.next52.i = add nuw nsw i64 %indvars.iv51.i, 1
  %exitcond54.not.i = icmp eq i64 %indvars.iv.next52.i, 4
  br i1 %exitcond54.not.i, label %av_image_fill_plane_sizes.exit, label %47, !llvm.loop !23

av_image_fill_plane_sizes.exit.thread:            ; preds = %54, %27, %25, %31
  call void @llvm.lifetime.end.p0(i64 16, ptr nonnull %5) #11
  br label %.loopexit

av_image_fill_plane_sizes.exit:                   ; preds = %47, %62, %38
  call void @llvm.lifetime.end.p0(i64 16, ptr nonnull %5) #11
  br label %65

65:                                               ; preds = %av_image_fill_plane_sizes.exit, %71
  %indvars.iv38 = phi i64 [ 0, %av_image_fill_plane_sizes.exit ], [ %indvars.iv.next39, %71 ]
  %.02835 = phi i32 [ 0, %av_image_fill_plane_sizes.exit ], [ %73, %71 ]
  %66 = getelementptr inbounds nuw [4 x i64], ptr %8, i64 0, i64 %indvars.iv38
  %67 = load i64, ptr %66, align 8, !tbaa !20
  %68 = sub nsw i32 2147483647, %.02835
  %69 = zext nneg i32 %68 to i64
  %70 = icmp ugt i64 %67, %69
  br i1 %70, label %.loopexit, label %71

71:                                               ; preds = %65
  %72 = trunc nuw nsw i64 %67 to i32
  %73 = add i32 %.02835, %72
  %indvars.iv.next39 = add nuw nsw i64 %indvars.iv38, 1
  %exitcond41.not = icmp eq i64 %indvars.iv.next39, 4
  br i1 %exitcond41.not, label %.loopexit, label %65, !llvm.loop !44

.loopexit:                                        ; preds = %71, %65, %av_image_fill_plane_sizes.exit.thread, %13, %10, %4
  %.0 = phi i32 [ -22, %4 ], [ %11, %10 ], [ %14, %13 ], [ -22, %av_image_fill_plane_sizes.exit.thread ], [ %73, %71 ], [ -22, %65 ]
  call void @llvm.lifetime.end.p0(i64 32, ptr nonnull %8) #11
  call void @llvm.lifetime.end.p0(i64 32, ptr nonnull %7) #11
  call void @llvm.lifetime.end.p0(i64 16, ptr nonnull %6) #11
  ret i32 %.0
}